; Function Attrs: nounwind uwtable
define range(i32 0, 2) i32 @ssl3_renegotiate_check(ptr noundef %0, i32 noundef %1) local_unnamed_addr #4 {
  %3 = icmp eq ptr %0, null
  br i1 %3, label %.thread, label %4

4:                                                ; preds = %2
  %5 = load i32, ptr %0, align 8, !tbaa !10
  %6 = icmp eq i32 %5, 0
  br i1 %6, label %7, label %.thread

7:                                                ; preds = %4
  %8 = getelementptr inbounds nuw i8, ptr %0, i64 460
  %9 = load i32, ptr %8, align 4, !tbaa !230
  %.not = icmp eq i32 %9, 0
  br i1 %.not, label %.thread, label %10

10:                                               ; preds = %7
  %11 = getelementptr inbounds nuw i8, ptr %0, i64 3160
  %12 = tail call i32 @RECORD_LAYER_read_pending(ptr noundef nonnull %11) #18
  %.not17 = icmp eq i32 %12, 0
  br i1 %.not17, label %13, label %.thread

13:                                               ; preds = %10
  %14 = tail call i32 @RECORD_LAYER_write_pending(ptr noundef nonnull %11) #18
  %.not18 = icmp eq i32 %14, 0
  br i1 %.not18, label %15, label %.thread

15:                                               ; preds = %13
  %.not19 = icmp eq i32 %1, 0
  br i1 %.not19, label %16, label %18

16:                                               ; preds = %15
  %17 = tail call i32 @SSL_in_init(ptr noundef nonnull %0) #18
  %.not20 = icmp eq i32 %17, 0
  br i1 %.not20, label %18, label %.thread

18:                                               ; preds = %16, %15
  tail call void @ossl_statem_set_renegotiate(ptr noundef nonnull %0) #18
  store i32 0, ptr %8, align 4, !tbaa !230
  %19 = getelementptr inbounds nuw i8, ptr %0, i64 468
  %20 = load i32, ptr %19, align 4, !tbaa !99
  %21 = add nsw i32 %20, 1
  store i32 %21, ptr %19, align 4, !tbaa !99
  %22 = getelementptr inbounds nuw i8, ptr %0, i64 464
  %23 = load i32, ptr %22, align 8, !tbaa !100
  %24 = add nsw i32 %23, 1
  store i32 %24, ptr %22, align 8, !tbaa !100
  br label %.thread

.thread:                                          ; preds = %2, %4, %7, %18, %16, %13, %10
  %.0 = phi i32 [ 0, %10 ], [ 0, %13 ], [ 1, %18 ], [ 0, %16 ], [ 0, %7 ], [ 0, %4 ], [ 0, %2 ]
  ret i32 %.0
}